(dp1
S'session'
p2
(dp3
S'filter'
p4
(dp5
S'education'
p6
S'\xe6\xb5\xb7\xe9\xbe\x9f'
p7
ssS'_accessed_time'
p8
F1386110410.5370989
sS'filters'
p9
(dp10
S'education'
p11
S'\xe6\xb5\xb7\xe9\xbe\x9f'
p12
ssS'_creation_time'
p13
F1386109319.638392
ss.